ccopy_reg
_reconstructor
p0
(csklearn.pipeline
Pipeline
p1
c__builtin__
object
p2
Ntp3
Rp4
(dp5
S'_sklearn_version'
p6
S'0.19.0'
p7
sS'steps'
p8
(lp9
(S'Select_Features'
p10
g0
(csklearn.feature_selection.univariate_selection
SelectKBest
p11
g2
Ntp12
Rp13
(dp14
S'k'
p15
I6
sg6
g7
sS'score_func'
p16
csklearn.feature_selection.univariate_selection
f_classif
p17
sbtp18
a(S'SVC'
p19
g0
(csklearn.naive_bayes
GaussianNB
p20
g2
Ntp21
Rp22
(dp23
S'priors'
p24
Nsg6
g7
sbtp25
asS'memory'
p26
Nsb.