(dp0
S'METTS MARK'
p1
(dp2
S'to_messages'
p3
I807
sS'percentage_messages_to_poi'
p4
S'0.00123915737299'
p5
sS'deferral_payments'
p6
S'NaN'
p7
sS'expenses'
p8
I94299
sS'poi'
p9
I00
sS'deferred_income'
p10
g7
sS'email_address'
p11
S'mark.metts@enron.com'
p12
sS'long_term_incentive'
p13
g7
sS'rate_bonus_by_salary'
p14
S'1.64029437816'
p15
sS'restricted_stock_deferred'
p16
g7
sS'shared_receipt_with_poi'
p17
I702
sS'loan_advances'
p18
g7
sS'from_messages'
p19
I29
sS'other'
p20
I1740
sS'director_fees'
p21
g7
sS'bonus'
p22
I600000
sS'total_stock_value'
p23
I585062
sS'from_poi_to_this_person'
p24
I38
sS'from_this_person_to_poi'
p25
I1
sS'restricted_stock'
p26
I585062
sS'salary'
p27
I365788
sS'total_payments'
p28
I1061827
sS'exercised_stock_options'
p29
g7
sS'percentage_messages_from_poi'
p30
S'1.31034482759'
p31
ssS'BAXTER JOHN C'
p32
(dp33
g3
g7
sg4
S'NaN'
p34
sg6
I1295738
sg8
I11200
sg9
I00
sg10
I-1386055
sg11
g7
sg13
I1586055
sg14
S'4.49266572321'
p35
sg16
g7
sg17
g7
sg18
g7
sg19
g7
sg20
I2660303
sg21
g7
sg22
I1200000
sg23
I10623258
sg24
g7
sg25
g7
sg26
I3942714
sg27
I267102
sg28
I5634343
sg29
I6680544
sg30
g34
ssS'ELLIOTT STEVEN'
p36
(dp37
g3
g7
sg4
g34
sg6
g7
sg8
I78552
sg9
I00
sg10
I-400729
sg11
S'steven.elliott@enron.com'
p38
sg13
g7
sg14
S'2.04749006967'
p39
sg16
g7
sg17
g7
sg18
g7
sg19
g7
sg20
I12961
sg21
g7
sg22
I350000
sg23
I6678735
sg24
g7
sg25
g7
sg26
I1788391
sg27
I170941
sg28
I211725
sg29
I4890344
sg30
g34
ssS'CORDES WILLIAM R'
p40
(dp41
g3
I764
sg4
g34
sg6
g7
sg8
g7
sg9
I00
sg10
g7
sg11
S'bill.cordes@enron.com'
p42
sg13
g7
sg14
g34
sg16
g7
sg17
I58
sg18
g7
sg19
I12
sg20
g7
sg21
g7
sg22
g7
sg23
I1038185
sg24
I10
sg25
I0
sg26
I386335
sg27
g7
sg28
g7
sg29
I651850
sg30
S'0.833333333333'
p43
ssS'HANNON KEVIN P'
p44
(dp45
g3
I1045
sg4
S'0.0200956937799'
p46
sg6
g7
sg8
I34039
sg9
I01
sg10
I-3117011
sg11
S'kevin.hannon@enron.com'
p47
sg13
I1617011
sg14
S'6.16540549872'
p48
sg16
g7
sg17
I1035
sg18
g7
sg19
I32
sg20
I11350
sg21
g7
sg22
I1500000
sg23
I6391065
sg24
I32
sg25
I21
sg26
I853064
sg27
I243293
sg28
I288682
sg29
I5538001
sg30
S'1.0'
p49
ssS'MORDAUNT KRISTINA M'
p50
(dp51
g3
g7
sg4
g34
sg6
g7
sg8
I35018
sg9
I00
sg10
g7
sg11
S'kristina.mordaunt@enron.com'
p52
sg13
g7
sg14
S'1.21680463359'
p53
sg16
g7
sg17
g7
sg18
g7
sg19
g7
sg20
I1411
sg21
g7
sg22
I325000
sg23
I208510
sg24
g7
sg25
g7
sg26
I208510
sg27
I267093
sg28
I628522
sg29
g7
sg30
g34
ssS'MEYER ROCKFORD G'
p54
(dp55
g3
I232
sg4
g34
sg6
I1848227
sg8
g7
sg9
I00
sg10
g7
sg11
S'rockford.meyer@enron.com'
p56
sg13
g7
sg14
g34
sg16
g7
sg17
I22
sg18
g7
sg19
I28
sg20
g7
sg21
g7
sg22
g7
sg23
I955873
sg24
I0
sg25
I0
sg26
I462384
sg27
g7
sg28
I1848227
sg29
I493489
sg30
g34
ssS'MCMAHON JEFFREY'
p57
(dp58
g3
I2355
sg4
S'0.0110403397028'
p59
sg6
g7
sg8
I137108
sg9
I00
sg10
g7
sg11
S'jeffrey.mcmahon@enron.com'
p60
sg13
I694862
sg14
S'7.01852891634'
p61
sg16
g7
sg17
I2228
sg18
g7
sg19
I48
sg20
I297353
sg21
g7
sg22
I2600000
sg23
I1662855
sg24
I58
sg25
I26
sg26
I558801
sg27
I370448
sg28
I4099771
sg29
I1104054
sg30
S'1.20833333333'
p62
ssS'HORTON STANLEY C'
p63
(dp64
g3
I2350
sg4
S'0.0063829787234'
p65
sg6
I3131860
sg8
g7
sg9
I00
sg10
g7
sg11
S'stanley.horton@enron.com'
p66
sg13
g7
sg14
g34
sg16
g7
sg17
I1074
sg18
g7
sg19
I1073
sg20
g7
sg21
g7
sg22
g7
sg23
I7256648
sg24
I44
sg25
I15
sg26
I2046079
sg27
g7
sg28
I3131860
sg29
I5210569
sg30
S'0.0410065237651'
p67
ssS'PIPER GREGORY F'
p68
(dp69
g3
I1238
sg4
S'0.0387722132472'
p70
sg6
I1130036
sg8
I43057
sg9
I00
sg10
I-33333
sg11
S'greg.piper@enron.com'
p71
sg13
g7
sg14
S'2.02951935908'
p72
sg16
I-409554
sg17
I742
sg18
g7
sg19
I222
sg20
I778
sg21
g7
sg22
I400000
sg23
I880290
sg24
I61
sg25
I48
sg26
I409554
sg27
I197091
sg28
I1737629
sg29
I880290
sg30
S'0.274774774775'
p73
ssS'HUMPHREY GENE E'
p74
(dp75
g3
I128
sg4
S'0.1328125'
p76
sg6
I2964506
sg8
I4994
sg9
I00
sg10
g7
sg11
S'gene.humphrey@enron.com'
p77
sg13
g7
sg14
g34
sg16
g7
sg17
I119
sg18
g7
sg19
I17
sg20
g7
sg21
g7
sg22
g7
sg23
I2282768
sg24
I10
sg25
I17
sg26
g7
sg27
I130724
sg28
I3100224
sg29
I2282768
sg30
S'0.588235294118'
p78
ssS'UMANOFF ADAM S'
p79
(dp80
g3
I111
sg4
g34
sg6
g7
sg8
I53122
sg9
I00
sg10
g7
sg11
S'adam.umanoff@enron.com'
p81
sg13
g7
sg14
S'2.73312565621'
p82
sg16
g7
sg17
I41
sg18
g7
sg19
I18
sg20
g7
sg21
g7
sg22
I788750
sg23
g7
sg24
I12
sg25
I0
sg26
g7
sg27
I288589
sg28
I1130461
sg29
g7
sg30
S'0.666666666667'
p83
ssS'BLACHMAN JEREMY M'
p84
(dp85
g3
I2475
sg4
S'0.000808080808081'
p86
sg6
g7
sg8
I84208
sg9
I00
sg10
g7
sg11
S'jeremy.blachman@enron.com'
p87
sg13
I831809
sg14
S'3.41989008071'
p88
sg16
g7
sg17
I2326
sg18
g7
sg19
I14
sg20
I272
sg21
g7
sg22
I850000
sg23
I954354
sg24
I25
sg25
I2
sg26
I189041
sg27
I248546
sg28
I2014835
sg29
I765313
sg30
S'1.78571428571'
p89
ssS'SUNDE MARTIN'
p90
(dp91
g3
I2647
sg4
S'0.00491122024934'
p92
sg6
g7
sg8
g7
sg9
I00
sg10
g7
sg11
S'marty.sunde@enron.com'
p93
sg13
I476451
sg14
S'2.71859440902'
p94
sg16
g7
sg17
I2565
sg18
g7
sg19
I38
sg20
I111122
sg21
g7
sg22
I700000
sg23
I698920
sg24
I37
sg25
I13
sg26
I698920
sg27
I257486
sg28
I1545059
sg29
g7
sg30
S'0.973684210526'
p95
ssS'GIBBS DANA R'
p96
(dp97
g3
I169
sg4
g34
sg6
I504610
sg8
g7
sg9
I00
sg10
g7
sg11
S'dana.gibbs@enron.com'
p98
sg13
I461912
sg14
g34
sg16
g7
sg17
I23
sg18
g7
sg19
I12
sg20
g7
sg21
g7
sg22
g7
sg23
I2218275
sg24
I0
sg25
I0
sg26
g7
sg27
g7
sg28
I966522
sg29
I2218275
sg30
g34
ssS'LOWRY CHARLES P'
p99
(dp100
g3
g7
sg4
g34
sg6
g7
sg8
g7
sg9
I00
sg10
g7
sg11
g7
sg13
g7
sg14
g34
sg16
I-153686
sg17
g7
sg18
g7
sg19
g7
sg20
g7
sg21
g7
sg22
g7
sg23
I372205
sg24
g7
sg25
g7
sg26
I153686
sg27
g7
sg28
g7
sg29
I372205
sg30
g34
ssS'COLWELL WESLEY'
p101
(dp102
g3
I1758
sg4
S'0.00625711035267'
p103
sg6
I27610
sg8
I16514
sg9
I01
sg10
I-144062
sg11
S'wes.colwell@enron.com'
p104
sg13
g7
sg14
S'4.15883996091'
p105
sg16
g7
sg17
I1132
sg18
g7
sg19
I40
sg20
I101740
sg21
g7
sg22
I1200000
sg23
I698242
sg24
I240
sg25
I11
sg26
I698242
sg27
I288542
sg28
I1490344
sg29
g7
sg30
S'6.0'
p106
ssS'MULLER MARK S'
p107
(dp108
g3
I136
sg4
g34
sg6
I842924
sg8
g7
sg9
I00
sg10
I-719000
sg11
S's..muller@enron.com'
p109
sg13
I1725545
sg14
S'4.37108092858'
p110
sg16
g7
sg17
I114
sg18
g7
sg19
I16
sg20
I947
sg21
g7
sg22
I1100000
sg23
I1416848
sg24
I12
sg25
I0
sg26
I360528
sg27
I251654
sg28
I3202070
sg29
I1056320
sg30
S'0.75'
p111
ssS'JACKSON CHARLENE R'
p112
(dp113
g3
I258
sg4
S'0.0736434108527'
p114
sg6
g7
sg8
I10181
sg9
I00
sg10
g7
sg11
S'charlene.jackson@enron.com'
p115
sg13
g7
sg14
S'0.866376950215'
p116
sg16
g7
sg17
I117
sg18
g7
sg19
I56
sg20
I2435
sg21
g7
sg22
I250000
sg23
I725735
sg24
I25
sg25
I19
sg26
I540672
sg27
I288558
sg28
I551174
sg29
I185063
sg30
S'0.446428571429'
p117
ssS'WESTFAHL RICHARD K'
p118
(dp119
g3
g7
sg4
g34
sg6
g7
sg8
I51870
sg9
I00
sg10
I-10800
sg11
S'dick.westfahl@enron.com'
p120
sg13
I256191
sg14
g34
sg16
g7
sg17
g7
sg18
g7
sg19
g7
sg20
I401130
sg21
g7
sg22
g7
sg23
I384930
sg24
g7
sg25
g7
sg26
I384930
sg27
I63744
sg28
I762135
sg29
g7
sg30
g34
ssS'WALTERS GARETH W'
p121
(dp122
g3
g7
sg4
g34
sg6
I53625
sg8
I33785
sg9
I00
sg10
g7
sg11
g7
sg13
g7
sg14
g34
sg16
g7
sg17
g7
sg18
g7
sg19
g7
sg20
g7
sg21
g7
sg22
g7
sg23
I1030329
sg24
g7
sg25
g7
sg26
g7
sg27
g7
sg28
I87410
sg29
I1030329
sg30
g34
ssS'WALLS JR ROBERT H'
p123
(dp124
g3
I671
sg4
g34
sg6
g7
sg8
I50936
sg9
I00
sg10
g7
sg11
S'rob.walls@enron.com'
p125
sg13
I540751
sg14
S'2.38034562618'
p126
sg16
g7
sg17
I215
sg18
g7
sg19
I146
sg20
I2
sg21
g7
sg22
I850000
sg23
I5898997
sg24
I17
sg25
I0
sg26
I1552453
sg27
I357091
sg28
I1798780
sg29
I4346544
sg30
S'0.116438356164'
p127
ssS'KITCHEN LOUISE'
p128
(dp129
g3
I8305
sg4
S'0.0233594220349'
p130
sg6
g7
sg8
I5774
sg9
I00
sg10
g7
sg11
S'louise.kitchen@enron.com'
p131
sg13
g7
sg14
S'11.420487618'
p132
sg16
g7
sg17
I3669
sg18
g7
sg19
I1728
sg20
I93925
sg21
g7
sg22
I3100000
sg23
I547143
sg24
I251
sg25
I194
sg26
I466101
sg27
I271442
sg28
I3471141
sg29
I81042
sg30
S'0.14525462963'
p133
ssS'CHAN RONNIE'
p134
(dp135
g3
g7
sg4
g34
sg6
g7
sg8
g7
sg9
I00
sg10
I-98784
sg11
g7
sg13
g7
sg14
g34
sg16
I-32460
sg17
g7
sg18
g7
sg19
g7
sg20
g7
sg21
I98784
sg22
g7
sg23
g7
sg24
g7
sg25
g7
sg26
I32460
sg27
g7
sg28
g7
sg29
g7
sg30
g34
ssS'BELFER ROBERT'
p136
(dp137
g3
g7
sg4
g34
sg6
I-102500
sg8
g7
sg9
I00
sg10
g7
sg11
g7
sg13
g7
sg14
g34
sg16
I44093
sg17
g7
sg18
g7
sg19
g7
sg20
g7
sg21
I3285
sg22
g7
sg23
I-44093
sg24
g7
sg25
g7
sg26
g7
sg27
g7
sg28
I102500
sg29
I3285
sg30
g34
ssS'SHANKMAN JEFFREY A'
p138
(dp139
g3
I3221
sg4
S'0.0257683949084'
p140
sg6
g7
sg8
I178979
sg9
I00
sg10
g7
sg11
S'jeffrey.shankman@enron.com'
p141
sg13
I554422
sg14
S'6.57656768932'
p142
sg16
g7
sg17
I1730
sg18
g7
sg19
I2681
sg20
I1191
sg21
g7
sg22
I2000000
sg23
I2072035
sg24
I94
sg25
I83
sg26
I630137
sg27
I304110
sg28
I3038702
sg29
I1441898
sg30
S'0.0350615441999'
p143
ssS'WODRASKA JOHN'
p144
(dp145
g3
g7
sg4
g34
sg6
g7
sg8
g7
sg9
I00
sg10
g7
sg11
S'john.wodraska@enron.com'
p146
sg13
g7
sg14
g34
sg16
g7
sg17
g7
sg18
g7
sg19
g7
sg20
I189583
sg21
g7
sg22
g7
sg23
g7
sg24
g7
sg25
g7
sg26
g7
sg27
g7
sg28
I189583
sg29
g7
sg30
g34
ssS'BERGSIEKER RICHARD P'
p147
(dp148
g3
I383
sg4
g34
sg6
g7
sg8
I59175
sg9
I00
sg10
I-485813
sg11
S'rick.bergsieker@enron.com'
p149
sg13
I180250
sg14
S'1.33033918328'
p150
sg16
g7
sg17
I233
sg18
g7
sg19
I59
sg20
I427316
sg21
g7
sg22
I250000
sg23
I659249
sg24
I4
sg25
I0
sg26
I659249
sg27
I187922
sg28
I618850
sg29
g7
sg30
S'0.0677966101695'
p151
ssS'URQUHART JOHN A'
p152
(dp153
g3
g7
sg4
g34
sg6
g7
sg8
I228656
sg9
I00
sg10
I-36666
sg11
g7
sg13
g7
sg14
g34
sg16
g7
sg17
g7
sg18
g7
sg19
g7
sg20
g7
sg21
I36666
sg22
g7
sg23
g7
sg24
g7
sg25
g7
sg26
g7
sg27
g7
sg28
I228656
sg29
g7
sg30
g34
ssS'BIBI PHILIPPE A'
p154
(dp155
g3
I1607
sg4
S'0.00497822028625'
p156
sg6
g7
sg8
I38559
sg9
I00
sg10
g7
sg11
S'philippe.bibi@enron.com'
p157
sg13
I369721
sg14
S'4.68110005851'
p158
sg16
g7
sg17
I1336
sg18
g7
sg19
I40
sg20
I425688
sg21
g7
sg22
I1000000
sg23
I1843816
sg24
I23
sg25
I8
sg26
I378082
sg27
I213625
sg28
I2047593
sg29
I1465734
sg30
S'0.575'
p159
ssS'RIEKER PAULA H'
p160
(dp161
g3
I1328
sg4
S'0.0361445783133'
p162
sg6
I214678
sg8
I33271
sg9
I01
sg10
I-100000
sg11
S'paula.rieker@enron.com'
p163
sg13
g7
sg14
S'2.80897749206'
p164
sg16
g7
sg17
I1258
sg18
g7
sg19
I82
sg20
I1950
sg21
g7
sg22
I700000
sg23
I1918887
sg24
I35
sg25
I48
sg26
I283649
sg27
I249201
sg28
I1099100
sg29
I1635238
sg30
S'0.426829268293'
p165
ssS'WHALEY DAVID A'
p166
(dp167
g3
g7
sg4
g34
sg6
g7
sg8
g7
sg9
I00
sg10
g7
sg11
g7
sg13
g7
sg14
g34
sg16
g7
sg17
g7
sg18
g7
sg19
g7
sg20
g7
sg21
g7
sg22
g7
sg23
I98718
sg24
g7
sg25
g7
sg26
g7
sg27
g7
sg28
g7
sg29
I98718
sg30
g34
ssS'BECK SALLY W'
p168
(dp169
g3
I7315
sg4
S'0.0527682843472'
p170
sg6
g7
sg8
I37172
sg9
I00
sg10
g7
sg11
S'sally.beck@enron.com'
p171
sg13
g7
sg14
S'3.02598020144'
p172
sg16
g7
sg17
I2639
sg18
g7
sg19
I4343
sg20
I566
sg21
g7
sg22
I700000
sg23
I126027
sg24
I144
sg25
I386
sg26
I126027
sg27
I231330
sg28
I969068
sg29
g7
sg30
S'0.0331568040525'
p173
ssS'HAUG DAVID L'
p174
(dp175
g3
I573
sg4
S'0.0122164048866'
p176
sg6
g7
sg8
I475
sg9
I00
sg10
g7
sg11
S'david.haug@enron.com'
p177
sg13
g7
sg14
g34
sg16
g7
sg17
I471
sg18
g7
sg19
I19
sg20
g7
sg21
g7
sg22
g7
sg23
I2217299
sg24
I4
sg25
I7
sg26
I2217299
sg27
g7
sg28
I475
sg29
g7
sg30
S'0.210526315789'
p178
ssS'ECHOLS JOHN B'
p179
(dp180
g3
g7
sg4
g34
sg6
g7
sg8
I21530
sg9
I00
sg10
g7
sg11
S'john.echols@enron.com'
p181
sg13
I2234774
sg14
S'1.09742379764'
p182
sg16
g7
sg17
g7
sg18
g7
sg19
g7
sg20
I53775
sg21
g7
sg22
I200000
sg23
I1008941
sg24
g7
sg25
g7
sg26
I407503
sg27
I182245
sg28
I2692324
sg29
I601438
sg30
g34
ssS'MENDELSOHN JOHN'
p183
(dp184
g3
g7
sg4
g34
sg6
g7
sg8
I148
sg9
I00
sg10
I-103750
sg11
g7
sg13
g7
sg14
g34
sg16
g7
sg17
g7
sg18
g7
sg19
g7
sg20
g7
sg21
I103750
sg22
g7
sg23
g7
sg24
g7
sg25
g7
sg26
g7
sg27
g7
sg28
I148
sg29
g7
sg30
g34
ssS'HICKERSON GARY J'
p185
(dp186
g3
I1320
sg4
S'0.000757575757576'
p187
sg6
g7
sg8
I98849
sg9
I00
sg10
g7
sg11
S'gary.hickerson@enron.com'
p188
sg13
I69223
sg14
S'8.02689481935'
p189
sg16
g7
sg17
I900
sg18
g7
sg19
I27
sg20
I1936
sg21
g7
sg22
I1700000
sg23
I441096
sg24
I40
sg25
I1
sg26
I441096
sg27
I211788
sg28
I2081796
sg29
g7
sg30
S'1.48148148148'
p190
ssS'CLINE KENNETH W'
p191
(dp192
g3
g7
sg4
g34
sg6
g7
sg8
g7
sg9
I00
sg10
g7
sg11
g7
sg13
g7
sg14
g34
sg16
I-472568
sg17
g7
sg18
g7
sg19
g7
sg20
g7
sg21
g7
sg22
g7
sg23
I189518
sg24
g7
sg25
g7
sg26
I662086
sg27
g7
sg28
g7
sg29
g7
sg30
g34
ssS'LEWIS RICHARD'
p193
(dp194
g3
I952
sg4
g34
sg6
g7
sg8
g7
sg9
I00
sg10
g7
sg11
S'richard.lewis@enron.com'
p195
sg13
g7
sg14
g34
sg16
g7
sg17
I739
sg18
g7
sg19
I26
sg20
g7
sg21
g7
sg22
g7
sg23
I850477
sg24
I10
sg25
I0
sg26
g7
sg27
g7
sg28
g7
sg29
I850477
sg30
S'0.384615384615'
p196
ssS'HAYES ROBERT E'
p197
(dp198
g3
I504
sg4
g34
sg6
I7961
sg8
g7
sg9
I00
sg10
g7
sg11
S'robert.hayes@enron.com'
p199
sg13
g7
sg14
g34
sg16
g7
sg17
I50
sg18
g7
sg19
I12
sg20
g7
sg21
g7
sg22
g7
sg23
I151418
sg24
I16
sg25
I0
sg26
I151418
sg27
g7
sg28
I7961
sg29
g7
sg30
S'1.33333333333'
p200
ssS'MCCARTY DANNY J'
p201
(dp202
g3
I1433
sg4
S'0.00139567341242'
p203
sg6
g7
sg8
g7
sg9
I00
sg10
g7
sg11
S'danny.mccarty@enron.com'
p204
sg13
g7
sg14
g34
sg16
g7
sg17
I508
sg18
g7
sg19
I215
sg20
g7
sg21
g7
sg22
g7
sg23
I758931
sg24
I25
sg25
I2
sg26
I94556
sg27
g7
sg28
g7
sg29
I664375
sg30
S'0.116279069767'
p205
ssS'KOPPER MICHAEL J'
p206
(dp207
g3
g7
sg4
g34
sg6
g7
sg8
I118134
sg9
I01
sg10
g7
sg11
S'michael.kopper@enron.com'
p208
sg13
I602671
sg14
S'3.56657230111'
p209
sg16
g7
sg17
g7
sg18
g7
sg19
g7
sg20
I907502
sg21
g7
sg22
I800000
sg23
I985032
sg24
g7
sg25
g7
sg26
I985032
sg27
I224305
sg28
I2652612
sg29
g7
sg30
g34
ssS'LEFF DANIEL P'
p210
(dp211
g3
I2822
sg4
S'0.0049610205528'
p212
sg6
g7
sg8
g7
sg9
I00
sg10
g7
sg11
S'dan.leff@enron.com'
p213
sg13
I1387399
sg14
S'3.65302141401'
p214
sg16
g7
sg17
I2672
sg18
g7
sg19
I63
sg20
I3083
sg21
g7
sg22
I1000000
sg23
I360528
sg24
I67
sg25
I14
sg26
I360528
sg27
I273746
sg28
I2664228
sg29
g7
sg30
S'1.06349206349'
p215
ssS'BERBERIAN DAVID'
p216
(dp217
g3
g7
sg4
g34
sg6
g7
sg8
I11892
sg9
I00
sg10
g7
sg11
S'david.berberian@enron.com'
p218
sg13
g7
sg14
g34
sg16
g7
sg17
g7
sg18
g7
sg19
g7
sg20
g7
sg21
g7
sg22
g7
sg23
I2493616
sg24
g7
sg25
g7
sg26
I869220
sg27
I216582
sg28
I228474
sg29
I1624396
sg30
g34
ssS'DETMERING TIMOTHY J'
p219
(dp220
g3
g7
sg4
g34
sg6
I875307
sg8
I52255
sg9
I00
sg10
I-775241
sg11
S'timothy.detmering@enron.com'
p221
sg13
I415657
sg14
S'2.0190023753'
p222
sg16
I-315068
sg17
g7
sg18
g7
sg19
g7
sg20
I1105
sg21
g7
sg22
I425000
sg23
I2027865
sg24
g7
sg25
g7
sg26
I315068
sg27
I210500
sg28
I1204583
sg29
I2027865
sg30
g34
ssS'WAKEHAM JOHN'
p223
(dp224
g3
g7
sg4
g34
sg6
g7
sg8
I103773
sg9
I00
sg10
g7
sg11
g7
sg13
g7
sg14
g34
sg16
g7
sg17
g7
sg18
g7
sg19
g7
sg20
g7
sg21
I109298
sg22
g7
sg23
g7
sg24
g7
sg25
g7
sg26
g7
sg27
g7
sg28
I213071
sg29
g7
sg30
g34
ssS'POWERS WILLIAM'
p225
(dp226
g3
I653
sg4
g34
sg6
g7
sg8
g7
sg9
I00
sg10
I-17500
sg11
S'ken.powers@enron.com'
p227
sg13
g7
sg14
g34
sg16
g7
sg17
I12
sg18
g7
sg19
I26
sg20
g7
sg21
I17500
sg22
g7
sg23
g7
sg24
I0
sg25
I0
sg26
g7
sg27
g7
sg28
g7
sg29
g7
sg30
g34
ssS'GOLD JOSEPH'
p228
(dp229
g3
g7
sg4
g34
sg6
g7
sg8
g7
sg9
I00
sg10
g7
sg11
S'joe.gold@enron.com'
p230
sg13
I304805
sg14
S'2.74846086192'
p231
sg16
g7
sg17
g7
sg18
g7
sg19
g7
sg20
I819288
sg21
g7
sg22
I750000
sg23
I877611
sg24
g7
sg25
g7
sg26
I441096
sg27
I272880
sg28
I2146973
sg29
I436515
sg30
g34
ssS'BANNANTINE JAMES M'
p232
(dp233
g3
I566
sg4
g34
sg6
g7
sg8
I56301
sg9
I00
sg10
I-5104
sg11
S'james.bannantine@enron.com'
p234
sg13
g7
sg14
g34
sg16
I-560222
sg17
I465
sg18
g7
sg19
I29
sg20
I864523
sg21
g7
sg22
g7
sg23
I5243487
sg24
I39
sg25
I0
sg26
I1757552
sg27
I477
sg28
I916197
sg29
I4046157
sg30
S'1.34482758621'
p235
ssS'DUNCAN JOHN H'
p236
(dp237
g3
g7
sg4
g34
sg6
g7
sg8
g7
sg9
I00
sg10
I-25000
sg11
g7
sg13
g7
sg14
g34
sg16
g7
sg17
g7
sg18
g7
sg19
g7
sg20
g7
sg21
I102492
sg22
g7
sg23
I371750
sg24
g7
sg25
g7
sg26
g7
sg27
g7
sg28
I77492
sg29
I371750
sg30
g34
ssS'SHAPIRO RICHARD S'
p238
(dp239
g3
I15149
sg4
S'0.00429071225823'
p240
sg6
g7
sg8
I137767
sg9
I00
sg10
g7
sg11
S'richard.shapiro@enron.com'
p241
sg13
g7
sg14
S'2.41567438196'
p242
sg16
g7
sg17
I4527
sg18
g7
sg19
I1215
sg20
I705
sg21
g7
sg22
I650000
sg23
I987001
sg24
I74
sg25
I65
sg26
I379164
sg27
I269076
sg28
I1057548
sg29
I607837
sg30
S'0.0609053497942'
p243
ssS'SHERRIFF JOHN R'
p244
(dp245
g3
I3187
sg4
S'0.00721681832444'
p246
sg6
g7
sg8
g7
sg9
I00
sg10
g7
sg11
S'john.sherriff@enron.com'
p247
sg13
I554422
sg14
S'3.49829749522'
p248
sg16
g7
sg17
I2103
sg18
g7
sg19
I92
sg20
I1852186
sg21
g7
sg22
I1500000
sg23
I3128982
sg24
I28
sg25
I23
sg26
I1293424
sg27
I428780
sg28
I4335388
sg29
I1835558
sg30
S'0.304347826087'
p249
ssS'SHELBY REX'
p250
(dp251
g3
I225
sg4
S'0.0622222222222'
p252
sg6
g7
sg8
I22884
sg9
I01
sg10
I-4167
sg11
S'rex.shelby@enron.com'
p253
sg13
g7
sg14
S'0.944090934839'
p254
sg16
g7
sg17
I91
sg18
g7
sg19
I39
sg20
I1573324
sg21
g7
sg22
I200000
sg23
I2493616
sg24
I13
sg25
I14
sg26
I869220
sg27
I211844
sg28
I2003885
sg29
I1624396
sg30
S'0.333333333333'
p255
ssS'LEMAISTRE CHARLES'
p256
(dp257
g3
g7
sg4
g34
sg6
g7
sg8
g7
sg9
I00
sg10
I-25000
sg11
g7
sg13
g7
sg14
g34
sg16
g7
sg17
g7
sg18
g7
sg19
g7
sg20
g7
sg21
I112492
sg22
g7
sg23
I412878
sg24
g7
sg25
g7
sg26
g7
sg27
g7
sg28
I87492
sg29
I412878
sg30
g34
ssS'DEFFNER JOSEPH M'
p258
(dp259
g3
I714
sg4
S'0.00560224089636'
p260
sg6
g7
sg8
I41626
sg9
I00
sg10
g7
sg11
S'joseph.deffner@enron.com'
p261
sg13
I335349
sg14
S'2.91091155195'
p262
sg16
g7
sg17
I552
sg18
g7
sg19
I74
sg20
I25553
sg21
g7
sg22
I600000
sg23
I159211
sg24
I115
sg25
I4
sg26
I141833
sg27
I206121
sg28
I1208649
sg29
I17378
sg30
S'1.55405405405'
p263
ssS'KISHKILL JOSEPH G'
p264
(dp265
g3
g7
sg4
g34
sg6
g7
sg8
I116335
sg9
I00
sg10
I-51042
sg11
S'joe.kishkill@enron.com'
p266
sg13
g7
sg14
g34
sg16
g7
sg17
g7
sg18
g7
sg19
g7
sg20
I465357
sg21
g7
sg22
g7
sg23
I1034346
sg24
g7
sg25
g7
sg26
I1034346
sg27
I174246
sg28
I704896
sg29
g7
sg30
g34
ssS'MCCONNELL MICHAEL S'
p267
(dp268
g3
I3329
sg4
S'0.058275758486'
p269
sg6
g7
sg8
I81364
sg9
I00
sg10
g7
sg11
S'mike.mcconnell@enron.com'
p270
sg13
I554422
sg14
S'3.01338490787'
p271
sg16
g7
sg17
I2189
sg18
g7
sg19
I2742
sg20
I540
sg21
g7
sg22
I1100000
sg23
I3101279
sg24
I92
sg25
I194
sg26
I1478269
sg27
I365038
sg28
I2101364
sg29
I1623010
sg30
S'0.0335521517141'
p272
ssS'PIRO JIM'
p273
(dp274
g3
I58
sg4
S'0.0172413793103'
p275
sg6
g7
sg8
g7
sg9
I00
sg10
g7
sg11
S'jim.piro@enron.com'
p276
sg13
g7
sg14
g34
sg16
g7
sg17
I3
sg18
g7
sg19
I16
sg20
g7
sg21
g7
sg22
g7
sg23
I47304
sg24
I0
sg25
I1
sg26
I47304
sg27
g7
sg28
g7
sg29
g7
sg30
g34
ssS'DELAINEY DAVID W'
p277
(dp278
g3
I3093
sg4
S'0.196896217265'
p279
sg6
g7
sg8
I86174
sg9
I01
sg10
g7
sg11
S'david.delainey@enron.com'
p280
sg13
I1294981
sg14
S'8.21550923834'
p281
sg16
g7
sg17
I2097
sg18
g7
sg19
I3069
sg20
I1661
sg21
g7
sg22
I3000000
sg23
I3614261
sg24
I66
sg25
I609
sg26
I1323148
sg27
I365163
sg28
I4747979
sg29
I2291113
sg30
S'0.0215053763441'
p282
ssS'SULLIVAN-SHAKLOVITZ COLLEEN'
p283
(dp284
g3
g7
sg4
g34
sg6
I181993
sg8
g7
sg9
I00
sg10
g7
sg11
g7
sg13
I554422
sg14
S'0.614329858274'
p285
sg16
g7
sg17
g7
sg18
g7
sg19
g7
sg20
I162
sg21
g7
sg22
I100000
sg23
I1362375
sg24
g7
sg25
g7
sg26
g7
sg27
I162779
sg28
I999356
sg29
I1362375
sg30
g34
ssS'WROBEL BRUCE'
p286
(dp287
g3
g7
sg4
g34
sg6
g7
sg8
g7
sg9
I00
sg10
g7
sg11
g7
sg13
g7
sg14
g34
sg16
g7
sg17
g7
sg18
g7
sg19
g7
sg20
g7
sg21
g7
sg22
g7
sg23
I139130
sg24
g7
sg25
g7
sg26
g7
sg27
g7
sg28
g7
sg29
I139130
sg30
g34
ssS'LINDHOLM TOD A'
p288
(dp289
g3
g7
sg4
g34
sg6
I204075
sg8
I57727
sg9
I00
sg10
g7
sg11
S'tod.lindholm@enron.com'
p290
sg13
I175000
sg14
S'0.845819747354'
p291
sg16
g7
sg17
g7
sg18
g7
sg19
g7
sg20
I2630
sg21
g7
sg22
I200000
sg23
I3064208
sg24
g7
sg25
g7
sg26
I514847
sg27
I236457
sg28
I875889
sg29
I2549361
sg30
g34
ssS'MEYER JEROME J'
p292
(dp293
g3
g7
sg4
g34
sg6
g7
sg8
I2151
sg9
I00
sg10
I-38346
sg11
g7
sg13
g7
sg14
g34
sg16
g7
sg17
g7
sg18
g7
sg19
g7
sg20
g7
sg21
I38346
sg22
g7
sg23
g7
sg24
g7
sg25
g7
sg26
g7
sg27
g7
sg28
I2151
sg29
g7
sg30
g34
ssS'LAY KENNETH L'
p294
(dp295
g3
I4273
sg4
S'0.00374444184414'
p296
sg6
I202911
sg8
I99832
sg9
I01
sg10
I-300000
sg11
S'kenneth.lay@enron.com'
p297
sg13
I3600000
sg14
S'6.52789603113'
p298
sg16
g7
sg17
I2411
sg18
I81525000
sg19
I36
sg20
I10359729
sg21
g7
sg22
I7000000
sg23
I49110078
sg24
I123
sg25
I16
sg26
I14761694
sg27
I1072321
sg28
I103559793
sg29
I34348384
sg30
S'3.41666666667'
p299
ssS'BUTTS ROBERT H'
p300
(dp301
g3
g7
sg4
g34
sg6
g7
sg8
I9410
sg9
I00
sg10
I-75000
sg11
S'bob.butts@enron.com'
p302
sg13
I175000
sg14
S'2.86789336025'
p303
sg16
g7
sg17
g7
sg18
g7
sg19
g7
sg20
I150656
sg21
g7
sg22
I750000
sg23
I417619
sg24
g7
sg25
g7
sg26
I417619
sg27
I261516
sg28
I1271582
sg29
g7
sg30
g34
ssS'OLSON CINDY K'
p304
(dp305
g3
I1184
sg4
S'0.0126689189189'
p306
sg6
I77716
sg8
I63791
sg9
I00
sg10
g7
sg11
S'cindy.olson@enron.com'
p307
sg13
I100000
sg14
S'2.27909492582'
p308
sg16
g7
sg17
I856
sg18
g7
sg19
I52
sg20
I972
sg21
g7
sg22
I750000
sg23
I2606763
sg24
I20
sg25
I15
sg26
I969729
sg27
I329078
sg28
I1321557
sg29
I1637034
sg30
S'0.384615384615'
p309
ssS'MCDONALD REBECCA'
p310
(dp311
g3
I894
sg4
S'0.00111856823266'
p312
sg6
g7
sg8
g7
sg9
I00
sg10
g7
sg11
S'rebecca.mcdonald@enron.com'
p313
sg13
g7
sg14
g34
sg16
g7
sg17
I720
sg18
g7
sg19
I13
sg20
g7
sg21
g7
sg22
g7
sg23
I1691366
sg24
I54
sg25
I1
sg26
I934065
sg27
g7
sg28
g7
sg29
I757301
sg30
S'4.15384615385'
p314
ssS'CUMBERLAND MICHAEL S'
p315
(dp316
g3
g7
sg4
g34
sg6
g7
sg8
I22344
sg9
I00
sg10
g7
sg11
g7
sg13
I275000
sg14
S'1.75771637489'
p317
sg16
g7
sg17
g7
sg18
g7
sg19
g7
sg20
I713
sg21
g7
sg22
I325000
sg23
I207940
sg24
g7
sg25
g7
sg26
I207940
sg27
I184899
sg28
I807956
sg29
g7
sg30
g34
ssS'GAHN ROBERT S'
p318
(dp319
g3
g7
sg4
g34
sg6
I73122
sg8
I50080
sg9
I00
sg10
I-1042
sg11
g7
sg13
g7
sg14
S'2.65546227241'
p320
sg16
g7
sg17
g7
sg18
g7
sg19
g7
sg20
I76547
sg21
g7
sg22
I509870
sg23
I318607
sg24
g7
sg25
g7
sg26
I235370
sg27
I192008
sg28
I900585
sg29
I83237
sg30
g34
ssS'MCCLELLAN GEORGE'
p321
(dp322
g3
I1744
sg4
g34
sg6
g7
sg8
I228763
sg9
I00
sg10
I-125000
sg11
S'george.mcclellan@enron.com'
p323
sg13
g7
sg14
S'3.41668786279'
p324
sg16
g7
sg17
I1469
sg18
g7
sg19
I49
sg20
I51587
sg21
g7
sg22
I900000
sg23
I947861
sg24
I52
sg25
I0
sg26
I441096
sg27
I263413
sg28
I1318763
sg29
I506765
sg30
S'1.0612244898'
p325
ssS'HERMANN ROBERT J'
p326
(dp327
g3
g7
sg4
g34
sg6
g7
sg8
I48357
sg9
I00
sg10
I-280000
sg11
S'robert.hermann@enron.com'
p328
sg13
I150000
sg14
S'2.66501182123'
p329
sg16
g7
sg17
g7
sg18
g7
sg19
g7
sg20
I416441
sg21
g7
sg22
I700000
sg23
I668132
sg24
g7
sg25
g7
sg26
I480632
sg27
I262663
sg28
I1297461
sg29
I187500
sg30
g34
ssS'SCRIMSHAW MATTHEW'
p330
(dp331
g3
g7
sg4
g34
sg6
g7
sg8
g7
sg9
I00
sg10
g7
sg11
S'matthew.scrimshaw@enron.com'
p332
sg13
g7
sg14
g34
sg16
g7
sg17
g7
sg18
g7
sg19
g7
sg20
g7
sg21
g7
sg22
g7
sg23
I759557
sg24
g7
sg25
g7
sg26
g7
sg27
g7
sg28
g7
sg29
I759557
sg30
g34
ssS'GATHMANN WILLIAM D'
p333
(dp334
g3
g7
sg4
g34
sg6
g7
sg8
g7
sg9
I00
sg10
g7
sg11
g7
sg13
g7
sg14
g34
sg16
I-72419
sg17
g7
sg18
g7
sg19
g7
sg20
g7
sg21
g7
sg22
g7
sg23
I1945360
sg24
g7
sg25
g7
sg26
I264013
sg27
g7
sg28
g7
sg29
I1753766
sg30
g34
ssS'HAEDICKE MARK E'
p335
(dp336
g3
I4009
sg4
S'0.0152157645298'
p337
sg6
I2157527
sg8
I76169
sg9
I00
sg10
I-934484
sg11
S'mark.haedicke@enron.com'
p338
sg13
I983346
sg14
S'3.07383895757'
p339
sg16
I-329825
sg17
I1847
sg18
g7
sg19
I1941
sg20
I52382
sg21
g7
sg22
I1150000
sg23
I803094
sg24
I180
sg25
I61
sg26
I524169
sg27
I374125
sg28
I3859065
sg29
I608750
sg30
S'0.0927357032457'
p340
ssS'BOWEN JR RAYMOND M'
p341
(dp342
g3
I1858
sg4
S'0.00807319698601'
p343
sg6
g7
sg8
I65907
sg9
I01
sg10
I-833
sg11
S'raymond.bowen@enron.com'
p344
sg13
I974293
sg14
S'4.84563946289'
p345
sg16
g7
sg17
I1593
sg18
g7
sg19
I27
sg20
I1621
sg21
g7
sg22
I1350000
sg23
I252055
sg24
I140
sg25
I15
sg26
I252055
sg27
I278601
sg28
I2669589
sg29
g7
sg30
S'5.18518518519'
p346
ssS'GILLIS JOHN'
p347
(dp348
g3
g7
sg4
g34
sg6
g7
sg8
g7
sg9
I00
sg10
g7
sg11
g7
sg13
g7
sg14
g34
sg16
g7
sg17
g7
sg18
g7
sg19
g7
sg20
g7
sg21
g7
sg22
g7
sg23
I85641
sg24
g7
sg25
g7
sg26
I75838
sg27
g7
sg28
g7
sg29
I9803
sg30
g34
ssS'FITZGERALD JAY L'
p349
(dp350
g3
I936
sg4
S'0.00854700854701'
p351
sg6
g7
sg8
I23870
sg9
I00
sg10
g7
sg11
S'jay.fitzgerald@enron.com'
p352
sg13
I556416
sg14
S'1.7574074725'
p353
sg16
g7
sg17
I723
sg18
g7
sg19
I16
sg20
I285414
sg21
g7
sg22
I350000
sg23
I1621236
sg24
I1
sg25
I8
sg26
I956775
sg27
I199157
sg28
I1414857
sg29
I664461
sg30
S'0.0625'
p354
ssS'MORAN MICHAEL P'
p355
(dp356
g3
I672
sg4
g34
sg6
g7
sg8
g7
sg9
I00
sg10
g7
sg11
S'michael.moran@enron.com'
p357
sg13
g7
sg14
g34
sg16
g7
sg17
I127
sg18
g7
sg19
I19
sg20
g7
sg21
g7
sg22
g7
sg23
I221141
sg24
I0
sg25
I0
sg26
I161602
sg27
g7
sg28
g7
sg29
I59539
sg30
g34
ssS'REDMOND BRIAN L'
p358
(dp359
g3
I1671
sg4
S'0.0293237582286'
p360
sg6
g7
sg8
I14689
sg9
I00
sg10
g7
sg11
S'brian.redmond@enron.com'
p361
sg13
g7
sg14
g34
sg16
g7
sg17
I1063
sg18
g7
sg19
I221
sg20
g7
sg21
g7
sg22
g7
sg23
I7890324
sg24
I204
sg25
I49
sg26
I381285
sg27
I96840
sg28
I111529
sg29
I7509039
sg30
S'0.923076923077'
p362
ssS'BAZELIDES PHILIP J'
p363
(dp364
g3
g7
sg4
g34
sg6
I684694
sg8
g7
sg9
I00
sg10
g7
sg11
g7
sg13
I93750
sg14
g34
sg16
g7
sg17
g7
sg18
g7
sg19
g7
sg20
I874
sg21
g7
sg22
g7
sg23
I1599641
sg24
g7
sg25
g7
sg26
g7
sg27
I80818
sg28
I860136
sg29
I1599641
sg30
g34
ssS'BELDEN TIMOTHY N'
p365
(dp366
g3
I7991
sg4
S'0.0135152046052'
p367
sg6
I2144013
sg8
I17355
sg9
I01
sg10
I-2334434
sg11
S'tim.belden@enron.com'
p368
sg13
g7
sg14
S'24.5328202468'
p369
sg16
g7
sg17
I5521
sg18
g7
sg19
I484
sg20
I210698
sg21
g7
sg22
I5249999
sg23
I1110705
sg24
I228
sg25
I108
sg26
I157569
sg27
I213999
sg28
I5501630
sg29
I953136
sg30
S'0.471074380165'
p370
ssS'DURAN WILLIAM D'
p371
(dp372
g3
I904
sg4
S'0.0033185840708'
p373
sg6
g7
sg8
I25785
sg9
I00
sg10
g7
sg11
S'w.duran@enron.com'
p374
sg13
I1105218
sg14
S'3.55969851727'
p375
sg16
g7
sg17
I599
sg18
g7
sg19
I12
sg20
I1568
sg21
g7
sg22
I750000
sg23
I1640910
sg24
I106
sg25
I3
sg26
I189041
sg27
I210692
sg28
I2093263
sg29
I1451869
sg30
S'8.83333333333'
p376
ssS'THORN TERENCE H'
p377
(dp378
g3
I266
sg4
g34
sg6
I16586
sg8
I46145
sg9
I00
sg10
g7
sg11
S'terence.thorn@enron.com'
p379
sg13
I200000
sg14
g34
sg16
g7
sg17
I73
sg18
g7
sg19
I41
sg20
I426629
sg21
g7
sg22
g7
sg23
I4817796
sg24
I0
sg25
I0
sg26
I365320
sg27
I222093
sg28
I911453
sg29
I4452476
sg30
g34
ssS'FASTOW ANDREW S'
p380
(dp381
g3
g7
sg4
g34
sg6
g7
sg8
I55921
sg9
I01
sg10
I-1386055
sg11
S'andrew.fastow@enron.com'
p382
sg13
I1736055
sg14
S'2.94986589456'
p383
sg16
g7
sg17
g7
sg18
g7
sg19
g7
sg20
I277464
sg21
g7
sg22
I1300000
sg23
I1794412
sg24
g7
sg25
g7
sg26
I1794412
sg27
I440698
sg28
I2424083
sg29
g7
sg30
g34
ssS'FOY JOE'
p384
(dp385
g3
I57
sg4
g34
sg6
I181755
sg8
g7
sg9
I00
sg10
g7
sg11
S'tracy.foy@enron.com'
p386
sg13
g7
sg14
g34
sg16
g7
sg17
I2
sg18
g7
sg19
I13
sg20
g7
sg21
g7
sg22
g7
sg23
I343434
sg24
I0
sg25
I0
sg26
g7
sg27
g7
sg28
I181755
sg29
I343434
sg30
g34
ssS'CALGER CHRISTOPHER F'
p387
(dp388
g3
I2598
sg4
S'0.00962278675905'
p389
sg6
g7
sg8
I35818
sg9
I01
sg10
I-262500
sg11
S'christopher.calger@enron.com'
p390
sg13
I375304
sg14
S'5.20423499827'
p391
sg16
g7
sg17
I2188
sg18
g7
sg19
I144
sg20
I486
sg21
g7
sg22
I1250000
sg23
I126027
sg24
I199
sg25
I25
sg26
I126027
sg27
I240189
sg28
I1639297
sg29
g7
sg30
S'1.38194444444'
p392
ssS'RICE KENNETH D'
p393
(dp394
g3
I905
sg4
S'0.00441988950276'
p395
sg6
g7
sg8
I46950
sg9
I01
sg10
I-3504386
sg11
S'ken.rice@enron.com'
p396
sg13
I1617011
sg14
S'4.16036668283'
p397
sg16
g7
sg17
I864
sg18
g7
sg19
I18
sg20
I174839
sg21
g7
sg22
I1750000
sg23
I22542539
sg24
I42
sg25
I4
sg26
I2748364
sg27
I420636
sg28
I505050
sg29
I19794175
sg30
S'2.33333333333'
p398
ssS'KAMINSKI WINCENTY J'
p399
(dp400
g3
I4607
sg4
S'0.0371174299978'
p401
sg6
g7
sg8
I83585
sg9
I00
sg10
g7
sg11
S'vince.kaminski@enron.com'
p402
sg13
I323466
sg14
S'1.4540114358'
p403
sg16
g7
sg17
I583
sg18
g7
sg19
I14368
sg20
I4669
sg21
g7
sg22
I400000
sg23
I976037
sg24
I41
sg25
I171
sg26
I126027
sg27
I275101
sg28
I1086821
sg29
I850010
sg30
S'0.00285356347439'
p404
ssS'LOCKHART EUGENE E'
p405
(dp406
g3
g7
sg4
g34
sg6
g7
sg8
g7
sg9
I00
sg10
g7
sg11
g7
sg13
g7
sg14
g34
sg16
g7
sg17
g7
sg18
g7
sg19
g7
sg20
g7
sg21
g7
sg22
g7
sg23
g7
sg24
g7
sg25
g7
sg26
g7
sg27
g7
sg28
g7
sg29
g7
sg30
g34
ssS'COX DAVID'
p407
(dp408
g3
I102
sg4
S'0.0392156862745'
p409
sg6
g7
sg8
I27861
sg9
I00
sg10
I-41250
sg11
S'chip.cox@enron.com'
p410
sg13
g7
sg14
S'2.54543603319'
p411
sg16
g7
sg17
I71
sg18
g7
sg19
I33
sg20
I494
sg21
g7
sg22
I800000
sg23
I495633
sg24
I0
sg25
I4
sg26
I378082
sg27
I314288
sg28
I1101393
sg29
I117551
sg30
g34
ssS'OVERDYKE JR JERE C'
p412
(dp413
g3
g7
sg4
g34
sg6
g7
sg8
I18834
sg9
I00
sg10
g7
sg11
S'jere.overdyke@enron.com'
p414
sg13
I135836
sg14
g34
sg16
g7
sg17
g7
sg18
g7
sg19
g7
sg20
I176
sg21
g7
sg22
g7
sg23
I7307594
sg24
g7
sg25
g7
sg26
I2041016
sg27
I94941
sg28
I249787
sg29
I5266578
sg30
g34
ssS'PEREIRA PAULO V. FERRAZ'
p415
(dp416
g3
g7
sg4
g34
sg6
g7
sg8
I27942
sg9
I00
sg10
I-101250
sg11
g7
sg13
g7
sg14
g34
sg16
g7
sg17
g7
sg18
g7
sg19
g7
sg20
g7
sg21
I101250
sg22
g7
sg23
g7
sg24
g7
sg25
g7
sg26
g7
sg27
g7
sg28
I27942
sg29
g7
sg30
g34
ssS'STABLER FRANK'
p417
(dp418
g3
g7
sg4
g34
sg6
g7
sg8
I16514
sg9
I00
sg10
g7
sg11
S'frank.stabler@enron.com'
p419
sg13
g7
sg14
S'2.0876652387'
p420
sg16
g7
sg17
g7
sg18
g7
sg19
g7
sg20
I356071
sg21
g7
sg22
I500000
sg23
I511734
sg24
g7
sg25
g7
sg26
I511734
sg27
I239502
sg28
I1112087
sg29
g7
sg30
g34
ssS'SKILLING JEFFREY K'
p421
(dp422
g3
I3627
sg4
S'0.00827129859388'
p423
sg6
g7
sg8
I29336
sg9
I01
sg10
g7
sg11
S'jeff.skilling@enron.com'
p424
sg13
I1920000
sg14
S'5.03933380007'
p425
sg16
g7
sg17
I2042
sg18
g7
sg19
I108
sg20
I22122
sg21
g7
sg22
I5600000
sg23
I26093672
sg24
I88
sg25
I30
sg26
I6843672
sg27
I1111258
sg28
I8682716
sg29
I19250000
sg30
S'0.814814814815'
p426
ssS'BLAKE JR. NORMAN P'
p427
(dp428
g3
g7
sg4
g34
sg6
g7
sg8
I1279
sg9
I00
sg10
I-113784
sg11
g7
sg13
g7
sg14
g34
sg16
g7
sg17
g7
sg18
g7
sg19
g7
sg20
g7
sg21
I113784
sg22
g7
sg23
g7
sg24
g7
sg25
g7
sg26
g7
sg27
g7
sg28
I1279
sg29
g7
sg30
g34
ssS'SHERRICK JEFFREY B'
p429
(dp430
g3
I613
sg4
S'0.0293637846656'
p431
sg6
g7
sg8
g7
sg9
I00
sg10
g7
sg11
S'jeffrey.sherrick@enron.com'
p432
sg13
g7
sg14
g34
sg16
g7
sg17
I583
sg18
g7
sg19
I25
sg20
g7
sg21
g7
sg22
g7
sg23
I1832468
sg24
I39
sg25
I18
sg26
I405999
sg27
g7
sg28
g7
sg29
I1426469
sg30
S'1.56'
p433
ssS'PRENTICE JAMES'
p434
(dp435
g3
g7
sg4
g34
sg6
I564348
sg8
g7
sg9
I00
sg10
g7
sg11
S'james.prentice@enron.com'
p436
sg13
g7
sg14
g34
sg16
g7
sg17
g7
sg18
g7
sg19
g7
sg20
g7
sg21
g7
sg22
g7
sg23
I1095040
sg24
g7
sg25
g7
sg26
I208809
sg27
g7
sg28
I564348
sg29
I886231
sg30
g34
ssS'GRAY RODNEY'
p437
(dp438
g3
g7
sg4
g34
sg6
I93585
sg8
g7
sg9
I00
sg10
g7
sg11
g7
sg13
I365625
sg14
g34
sg16
g7
sg17
g7
sg18
g7
sg19
g7
sg20
I680833
sg21
g7
sg22
g7
sg23
g7
sg24
g7
sg25
g7
sg26
g7
sg27
I6615
sg28
I1146658
sg29
g7
sg30
g34
ssS'PICKERING MARK R'
p439
(dp440
g3
I898
sg4
g34
sg6
g7
sg8
I31653
sg9
I00
sg10
g7
sg11
S'mark.pickering@enron.com'
p441
sg13
g7
sg14
S'0.457989396019'
p442
sg16
g7
sg17
I728
sg18
I400000
sg19
I67
sg20
g7
sg21
g7
sg22
I300000
sg23
I28798
sg24
I7
sg25
I0
sg26
g7
sg27
I655037
sg28
I1386690
sg29
I28798
sg30
S'0.10447761194'
p443
ssS'NOLES JAMES L'
p444
(dp445
g3
g7
sg4
g34
sg6
I774401
sg8
g7
sg9
I00
sg10
g7
sg11
g7
sg13
g7
sg14
g34
sg16
I-94556
sg17
g7
sg18
g7
sg19
g7
sg20
g7
sg21
g7
sg22
g7
sg23
I368705
sg24
g7
sg25
g7
sg26
I463261
sg27
g7
sg28
I774401
sg29
g7
sg30
g34
ssS'KEAN STEVEN J'
p446
(dp447
g3
I12754
sg4
S'0.0303434216716'
p448
sg6
g7
sg8
I41953
sg9
I00
sg10
g7
sg11
S'steven.kean@enron.com'
p449
sg13
I300000
sg14
S'2.47317838046'
p450
sg16
g7
sg17
I3639
sg18
g7
sg19
I6759
sg20
I1231
sg21
g7
sg22
I1000000
sg23
I6153642
sg24
I140
sg25
I387
sg26
I4131594
sg27
I404338
sg28
I1747522
sg29
I2022048
sg30
S'0.0207131232431'
p451
ssS'FOWLER PEGGY'
p452
(dp453
g3
I517
sg4
g34
sg6
g7
sg8
g7
sg9
I00
sg10
g7
sg11
S'kulvinder.fowler@enron.com'
p454
sg13
g7
sg14
g34
sg16
g7
sg17
I10
sg18
g7
sg19
I36
sg20
g7
sg21
g7
sg22
g7
sg23
I1884748
sg24
I0
sg25
I0
sg26
I560170
sg27
g7
sg28
g7
sg29
I1324578
sg30
g34
ssS'WASAFF GEORGE'
p455
(dp456
g3
I400
sg4
S'0.0175'
p457
sg6
I831299
sg8
g7
sg9
I00
sg10
I-583325
sg11
S'george.wasaff@enron.com'
p458
sg13
I200000
sg14
S'1.25001923107'
p459
sg16
g7
sg17
I337
sg18
g7
sg19
I30
sg20
I1425
sg21
g7
sg22
I325000
sg23
I2056427
sg24
I22
sg25
I7
sg26
I388167
sg27
I259996
sg28
I1034395
sg29
I1668260
sg30
S'0.733333333333'
p460
ssS'WHITE JR THOMAS E'
p461
(dp462
g3
g7
sg4
g34
sg6
g7
sg8
I81353
sg9
I00
sg10
g7
sg11
S'thomas.white@enron.com'
p463
sg13
g7
sg14
S'1.41713090825'
p464
sg16
g7
sg17
g7
sg18
g7
sg19
g7
sg20
I1085463
sg21
g7
sg22
I450000
sg23
I15144123
sg24
g7
sg25
g7
sg26
I13847074
sg27
I317543
sg28
I1934359
sg29
I1297049
sg30
g34
ssS'CHRISTODOULOU DIOMEDES'
p465
(dp466
g3
g7
sg4
g34
sg6
g7
sg8
g7
sg9
I00
sg10
g7
sg11
S'diomedes.christodoulou@enron.com'
p467
sg13
g7
sg14
g34
sg16
g7
sg17
g7
sg18
g7
sg19
g7
sg20
g7
sg21
g7
sg22
g7
sg23
I6077885
sg24
g7
sg25
g7
sg26
I950730
sg27
g7
sg28
g7
sg29
I5127155
sg30
g34
ssS'ALLEN PHILLIP K'
p468
(dp469
g3
I2902
sg4
S'0.0223983459683'
p470
sg6
I2869717
sg8
I13868
sg9
I00
sg10
I-3081055
sg11
S'phillip.allen@enron.com'
p471
sg13
I304805
sg14
S'20.6729221856'
p472
sg16
I-126027
sg17
I1407
sg18
g7
sg19
I2195
sg20
I152
sg21
g7
sg22
I4175000
sg23
I1729541
sg24
I47
sg25
I65
sg26
I126027
sg27
I201955
sg28
I4484442
sg29
I1729541
sg30
S'0.0214123006834'
p473
ssS'SHARP VICTORIA T'
p474
(dp475
g3
I3136
sg4
S'0.00191326530612'
p476
sg6
I187469
sg8
I116337
sg9
I00
sg10
g7
sg11
S'vicki.sharp@enron.com'
p477
sg13
I422158
sg14
S'2.41793137911'
p478
sg16
g7
sg17
I2477
sg18
g7
sg19
I136
sg20
I2401
sg21
g7
sg22
I600000
sg23
I494136
sg24
I24
sg25
I6
sg26
I213063
sg27
I248146
sg28
I1576511
sg29
I281073
sg30
S'0.176470588235'
p479
ssS'JAEDICKE ROBERT'
p480
(dp481
g3
g7
sg4
g34
sg6
g7
sg8
g7
sg9
I00
sg10
I-25000
sg11
g7
sg13
g7
sg14
g34
sg16
I-44093
sg17
g7
sg18
g7
sg19
g7
sg20
g7
sg21
I108750
sg22
g7
sg23
I431750
sg24
g7
sg25
g7
sg26
I44093
sg27
g7
sg28
I83750
sg29
I431750
sg30
g34
ssS'WINOKUR JR. HERBERT S'
p482
(dp483
g3
g7
sg4
g34
sg6
g7
sg8
I1413
sg9
I00
sg10
I-25000
sg11
g7
sg13
g7
sg14
g34
sg16
g7
sg17
g7
sg18
g7
sg19
g7
sg20
g7
sg21
I108579
sg22
g7
sg23
g7
sg24
g7
sg25
g7
sg26
g7
sg27
g7
sg28
I84992
sg29
g7
sg30
g34
ssS'BROWN MICHAEL'
p484
(dp485
g3
I1486
sg4
S'0.000672947510094'
p486
sg6
g7
sg8
I49288
sg9
I00
sg10
g7
sg11
S'michael.brown@enron.com'
p487
sg13
g7
sg14
g34
sg16
g7
sg17
I761
sg18
g7
sg19
I41
sg20
g7
sg21
g7
sg22
g7
sg23
g7
sg24
I13
sg25
I1
sg26
g7
sg27
g7
sg28
I49288
sg29
g7
sg30
S'0.317073170732'
p488
ssS'BADUM JAMES P'
p489
(dp490
g3
g7
sg4
g34
sg6
I178980
sg8
I3486
sg9
I00
sg10
g7
sg11
g7
sg13
g7
sg14
g34
sg16
g7
sg17
g7
sg18
g7
sg19
g7
sg20
g7
sg21
g7
sg22
g7
sg23
I257817
sg24
g7
sg25
g7
sg26
g7
sg27
g7
sg28
I182466
sg29
I257817
sg30
g34
ssS'HUGHES JAMES A'
p491
(dp492
g3
I719
sg4
S'0.00695410292072'
p493
sg6
g7
sg8
g7
sg9
I00
sg10
g7
sg11
S'james.hughes@enron.com'
p494
sg13
g7
sg14
g34
sg16
g7
sg17
I589
sg18
g7
sg19
I34
sg20
g7
sg21
g7
sg22
g7
sg23
I1118394
sg24
I35
sg25
I5
sg26
I363428
sg27
g7
sg28
g7
sg29
I754966
sg30
S'1.02941176471'
p495
ssS'REYNOLDS LAWRENCE'
p496
(dp497
g3
g7
sg4
g34
sg6
I51365
sg8
I8409
sg9
I00
sg10
I-200000
sg11
g7
sg13
I156250
sg14
S'1.30891765599'
p498
sg16
I-140264
sg17
g7
sg18
g7
sg19
g7
sg20
I202052
sg21
g7
sg22
I100000
sg23
I4221891
sg24
g7
sg25
g7
sg26
I201483
sg27
I76399
sg28
I394475
sg29
I4160672
sg30
g34
ssS'DIMICHELE RICHARD G'
p499
(dp500
g3
g7
sg4
g34
sg6
g7
sg8
I35812
sg9
I00
sg10
g7
sg11
S'richard.dimichele@enron.com'
p501
sg13
I694862
sg14
S'3.80534879827'
p502
sg16
g7
sg17
g7
sg18
g7
sg19
g7
sg20
I374689
sg21
g7
sg22
I1000000
sg23
I8317782
sg24
g7
sg25
g7
sg26
I126027
sg27
I262788
sg28
I2368151
sg29
I8191755
sg30
g34
ssS'BHATNAGAR SANJAY'
p503
(dp504
g3
I523
sg4
S'0.0019120458891'
p505
sg6
g7
sg8
g7
sg9
I00
sg10
g7
sg11
S'sanjay.bhatnagar@enron.com'
p506
sg13
g7
sg14
g34
sg16
I15456290
sg17
I463
sg18
g7
sg19
I29
sg20
I137864
sg21
I137864
sg22
g7
sS'total_stock_value'
p507
S'NaN'
p508
sg24
I0
sg25
I1
sg26
I-2604490
sg27
g7
sg28
I15456290
sg29
I2604490
sg30
g34
ssS'CARTER REBECCA C'
p509
(dp510
g3
I312
sg4
S'0.0224358974359'
p511
sg6
g7
sg8
g7
sg9
I00
sg10
I-159792
sg11
S'rebecca.carter@enron.com'
p512
sg13
I75000
sg14
S'1.14587351848'
p513
sg16
I-307301
sg17
I196
sg18
g7
sg19
I15
sg20
I540
sg21
g7
sg22
I300000
sg23
g7
sg24
I29
sg25
I7
sg26
I307301
sg27
I261809
sg28
I477557
sg29
g7
sg30
S'1.93333333333'
p514
ssS'BUCHANAN HAROLD G'
p515
(dp516
g3
I1088
sg4
g34
sg6
g7
sg8
I600
sg9
I00
sg10
g7
sg11
S'john.buchanan@enron.com'
p517
sg13
I304805
sg14
S'2.01599083934'
p518
sg16
g7
sg17
I23
sg18
g7
sg19
I125
sg20
I1215
sg21
g7
sg22
I500000
sg23
I1014505
sg24
I0
sg25
I0
sg26
I189041
sg27
I248017
sg28
I1054637
sg29
I825464
sg30
g34
ssS'YEAP SOON'
p519
(dp520
g3
g7
sg4
g34
sg6
g7
sg8
I55097
sg9
I00
sg10
g7
sg11
g7
sg13
g7
sg14
g34
sg16
g7
sg17
g7
sg18
g7
sg19
g7
sg20
g7
sg21
g7
sg22
g7
sg23
I192758
sg24
g7
sg25
g7
sg26
g7
sg27
g7
sg28
I55097
sg29
I192758
sg30
g34
ssS'MURRAY JULIA H'
p521
(dp522
g3
I2192
sg4
S'0.000912408759124'
p523
sg6
g7
sg8
I57580
sg9
I00
sg10
g7
sg11
S'julia.murray@enron.com'
p524
sg13
I125000
sg14
S'1.74456133005'
p525
sg16
g7
sg17
I395
sg18
g7
sg19
I45
sg20
I330
sg21
g7
sg22
I400000
sg23
I597461
sg24
I11
sg25
I2
sg26
I196983
sg27
I229284
sg28
I812194
sg29
I400478
sg30
S'0.244444444444'
p526
ssS'GARLAND C KEVIN'
p527
(dp528
g3
I209
sg4
S'0.129186602871'
p529
sg6
g7
sg8
I48405
sg9
I00
sg10
g7
sg11
S'kevin.garland@enron.com'
p530
sg13
I375304
sg14
S'3.66464608142'
p531
sg16
g7
sg17
I178
sg18
g7
sg19
I44
sg20
I60814
sg21
g7
sg22
I850000
sg23
I896153
sg24
I10
sg25
I27
sg26
I259907
sg27
I231946
sg28
I1566469
sg29
I636246
sg30
S'0.227272727273'
p532
ssS'DODSON KEITH'
p533
(dp534
g3
I176
sg4
S'0.0170454545455'
p535
sg6
g7
sg8
I28164
sg9
I00
sg10
g7
sg11
S'keith.dodson@enron.com'
p536
sg13
g7
sg14
S'0.31673778184'
p537
sg16
g7
sg17
I114
sg18
g7
sg19
I14
sg20
I774
sg21
g7
sg22
I70000
sg23
g7
sg24
I10
sg25
I3
sg26
g7
sg27
I221003
sg28
I319941
sg29
g7
sg30
S'0.714285714286'
p538
ssS'YEAGER F SCOTT'
p539
(dp540
g3
g7
sg4
g34
sg6
g7
sg8
I53947
sg9
I01
sg10
g7
sg11
S'scott.yeager@enron.com'
p541
sg13
g7
sg14
g34
sg16
g7
sg17
g7
sg18
g7
sg19
g7
sg20
I147950
sg21
g7
sg22
g7
sg23
I11884758
sg24
g7
sg25
g7
sg26
I3576206
sg27
I158403
sg28
I360300
sg29
I8308552
sg30
g34
ssS'HIRKO JOSEPH'
p542
(dp543
g3
g7
sg4
g34
sg6
I10259
sg8
I77978
sg9
I01
sg10
g7
sg11
S'joe.hirko@enron.com'
p544
sg13
g7
sg14
g34
sg16
g7
sg17
g7
sg18
g7
sg19
g7
sg20
I2856
sg21
g7
sg22
g7
sg23
I30766064
sg24
g7
sg25
g7
sg26
g7
sg27
g7
sg28
I91093
sg29
I30766064
sg30
g34
ssS'DIETRICH JANET R'
p545
(dp546
g3
I2572
sg4
S'0.0054432348367'
p547
sg6
g7
sg8
I3475
sg9
I00
sg10
g7
sg11
S'janet.dietrich@enron.com'
p548
sg13
I556416
sg14
S'2.39904038385'
p549
sg16
g7
sg17
I1902
sg18
g7
sg19
I63
sg20
I473
sg21
g7
sg22
I600000
sg23
I1865087
sg24
I305
sg25
I14
sg26
I315068
sg27
I250100
sg28
I1410464
sg29
I1550019
sg30
S'4.84126984127'
p550
ssS'DERRICK JR. JAMES V'
p551
(dp552
g3
I2181
sg4
S'0.00917010545621'
p553
sg6
g7
sg8
I51124
sg9
I00
sg10
I-1284000
sg11
S'james.derrick@enron.com'
p554
sg13
I484000
sg14
S'1.6247778624'
p555
sg16
I-1787380
sg17
I1401
sg18
g7
sg19
I909
sg20
I7482
sg21
g7
sg22
I800000
sg23
I8831913
sg24
I64
sg25
I20
sg26
I1787380
sg27
I492375
sg28
I550981
sg29
I8831913
sg30
S'0.0704070407041'
p556
ssS'PAI LOU L'
p557
(dp558
g3
g7
sg4
g34
sg6
g7
sg8
I32047
sg9
I00
sg10
g7
sg11
S'lou.pai@enron.com'
p559
sg13
g7
sg14
S'3.81855742538'
p560
sg16
g7
sg17
g7
sg18
g7
sg19
g7
sg20
I1829457
sg21
g7
sg22
I1000000
sg23
I23817930
sg24
g7
sg25
g7
sg26
I8453763
sg27
I261879
sg28
I3123383
sg29
I15364167
sg30
g34
ssS'BAY FRANKLIN R'
p561
(dp562
g3
g7
sg4
g34
sg6
I260455
sg8
I129142
sg9
I00
sg10
I-201641
sg11
S'frank.bay@enron.com'
p563
sg13
g7
sg14
S'1.66895452516'
p564
sg16
I-82782
sg17
g7
sg18
g7
sg19
g7
sg20
I69
sg21
g7
sg22
I400000
sg23
I63014
sg24
g7
sg25
g7
sg26
I145796
sg27
I239671
sg28
I827696
sg29
g7
sg30
g34
ssS'HAYSLETT RODERICK J'
p565
(dp566
g3
I2649
sg4
S'0.0143450358626'
p567
sg6
g7
sg8
g7
sg9
I00
sg10
g7
sg11
S'rod.hayslett@enron.com'
p568
sg13
g7
sg14
g34
sg16
g7
sg17
I571
sg18
g7
sg19
I1061
sg20
g7
sg21
g7
sg22
g7
sg23
I346663
sg24
I35
sg25
I38
sg26
I346663
sg27
g7
sg28
g7
sg29
g7
sg30
S'0.0329877474081'
p569
ssS'FUGH JOHN L'
p570
(dp571
g3
g7
sg4
g34
sg6
I50591
sg8
g7
sg9
I00
sg10
g7
sg11
g7
sg13
g7
sg14
g34
sg16
g7
sg17
g7
sg18
g7
sg19
g7
sg20
g7
sg21
g7
sg22
g7
sg23
I176378
sg24
g7
sg25
g7
sg26
g7
sg27
g7
sg28
I50591
sg29
I176378
sg30
g34
ssS'FALLON JAMES B'
p572
(dp573
g3
I1755
sg4
S'0.0210826210826'
p574
sg6
g7
sg8
I95924
sg9
I00
sg10
g7
sg11
S'jim.fallon@enron.com'
p575
sg13
I374347
sg14
S'8.20780858077'
p576
sg16
g7
sg17
I1604
sg18
g7
sg19
I75
sg20
I401481
sg21
g7
sg22
I2500000
sg23
I2332399
sg24
I42
sg25
I37
sg26
I1392142
sg27
I304588
sg28
I3676340
sg29
I940257
sg30
S'0.56'
p577
ssS'KOENIG MARK E'
p578
(dp579
g3
I2374
sg4
S'0.00631844987363'
p580
sg6
g7
sg8
I127017
sg9
I01
sg10
g7
sg11
S'mark.koenig@enron.com'
p581
sg13
I300000
sg14
S'2.25845792493'
p582
sg16
g7
sg17
I2271
sg18
g7
sg19
I61
sg20
I150458
sg21
g7
sg22
I700000
sg23
I1920055
sg24
I53
sg25
I15
sg26
I1248318
sg27
I309946
sg28
I1587421
sg29
I671737
sg30
S'0.868852459016'
p583
ssS'SAVAGE FRANK'
p584
(dp585
g3
g7
sg4
g34
sg6
g7
sg8
g7
sg9
I00
sg10
I-121284
sg11
g7
sg13
g7
sg14
g34
sg16
g7
sg17
g7
sg18
g7
sg19
g7
sg20
g7
sg21
I125034
sg22
g7
sg23
g7
sg24
g7
sg25
g7
sg26
g7
sg27
g7
sg28
I3750
sg29
g7
sg30
g34
ssS'IZZO LAWRENCE L'
p586
(dp587
g3
I496
sg4
S'0.0100806451613'
p588
sg6
g7
sg8
I28093
sg9
I00
sg10
g7
sg11
S'larry.izzo@enron.com'
p589
sg13
I312500
sg14
g34
sg16
g7
sg17
I437
sg18
g7
sg19
I19
sg20
I1553729
sg21
g7
sg22
g7
sg23
I5819980
sg24
I28
sg25
I5
sg26
I3654808
sg27
I85274
sg28
I1979596
sg29
I2165172
sg30
S'1.47368421053'
p590
ssS'TILNEY ELIZABETH A'
p591
(dp592
g3
I460
sg4
S'0.0239130434783'
p593
sg6
g7
sg8
g7
sg9
I00
sg10
I-575000
sg11
S'elizabeth.tilney@enron.com'
p594
sg13
I275000
sg14
S'1.2129151202'
p595
sg16
g7
sg17
I379
sg18
g7
sg19
I19
sg20
I152055
sg21
g7
sg22
I300000
sg23
I1168042
sg24
I10
sg25
I11
sg26
I576792
sg27
I247338
sg28
I399393
sg29
I591250
sg30
S'0.526315789474'
p596
ssS'MARTIN AMANDA K'
p597
(dp598
g3
I1522
sg4
g34
sg6
I85430
sg8
I8211
sg9
I00
sg10
g7
sg11
S'a..martin@enron.com'
p599
sg13
I5145434
sg14
g34
sg16
g7
sg17
I477
sg18
g7
sg19
I230
sg20
I2818454
sg21
g7
sg22
g7
sg23
I2070306
sg24
I8
sg25
I0
sg26
g7
sg27
I349487
sg28
I8407016
sg29
I2070306
sg30
S'0.0347826086957'
p600
ssS'BUY RICHARD B'
p601
(dp602
g3
I3523
sg4
S'0.0201532784559'
p603
sg6
I649584
sg8
g7
sg9
I00
sg10
I-694862
sg11
S'rick.buy@enron.com'
p604
sg13
I769862
sg14
S'2.72276778421'
p605
sg16
g7
sg17
I2333
sg18
g7
sg19
I1053
sg20
I400572
sg21
g7
sg22
I900000
sg23
I3444470
sg24
I156
sg25
I71
sg26
I901657
sg27
I330546
sg28
I2355702
sg29
I2542813
sg30
S'0.148148148148'
p606
ssS'GRAMM WENDY L'
p607
(dp608
g3
g7
sg4
g34
sg6
g7
sg8
g7
sg9
I00
sg10
g7
sg11
g7
sg13
g7
sg14
g34
sg16
g7
sg17
g7
sg18
g7
sg19
g7
sg20
g7
sg21
I119292
sg22
g7
sg23
g7
sg24
g7
sg25
g7
sg26
g7
sg27
g7
sg28
I119292
sg29
g7
sg30
g34
ssS'CAUSEY RICHARD A'
p609
(dp610
g3
I1892
sg4
S'0.00634249471459'
p611
sg6
g7
sg8
I30674
sg9
I01
sg10
I-235000
sg11
S'richard.causey@enron.com'
p612
sg13
I350000
sg14
S'2.40854165212'
p613
sg16
g7
sg17
I1585
sg18
g7
sg19
I49
sg20
I307895
sg21
g7
sg22
I1000000
sg23
I2502063
sg24
I58
sg25
I12
sg26
I2502063
sg27
I415189
sg28
I1868758
sg29
g7
sg30
S'1.18367346939'
p614
ssS'TAYLOR MITCHELL S'
p615
(dp616
g3
I533
sg4
g34
sg6
I227449
sg8
g7
sg9
I00
sg10
g7
sg11
S'mitchell.taylor@enron.com'
p617
sg13
g7
sg14
S'2.26232401004'
p618
sg16
g7
sg17
I300
sg18
g7
sg19
I29
sg20
g7
sg21
g7
sg22
I600000
sg23
I3745048
sg24
I0
sg25
I0
sg26
I563798
sg27
I265214
sg28
I1092663
sg29
I3181250
sg30
g34
ssS'DONAHUE JR JEFFREY M'
p619
(dp620
g3
I865
sg4
S'0.0127167630058'
p621
sg6
g7
sg8
I96268
sg9
I00
sg10
I-300000
sg11
S'jeff.donahue@enron.com'
p622
sg13
g7
sg14
S'2.87149005208'
p623
sg16
g7
sg17
I772
sg18
g7
sg19
I22
sg20
I891
sg21
g7
sg22
I800000
sg23
I1080988
sg24
I188
sg25
I11
sg26
I315068
sg27
I278601
sg28
I875760
sg29
I765920
sg30
S'8.54545454545'
p624
ssS'GLISAN JR BEN F'
p625
(dp626
g3
I873
sg4
S'0.00687285223368'
p627
sg6
g7
sg8
I125978
sg9
I01
sg10
g7
sg11
S'ben.glisan@enron.com'
p628
sg13
I71023
sg14
S'2.18201654696'
p629
sg16
g7
sg17
I874
sg18
g7
sg19
I16
sg20
I200308
sg21
g7
sg22
I600000
sg23
I778546
sg24
I52
sg25
I6
sg26
I393818
sg27
I274975
sg28
I1272284
sg29
I384728
sg30
S'3.25'
p630
ss.