(lp0
S'poi'
p1
aS'salary'
p2
aS'percentage_messages_to_poi'
p3
aS'percentage_messages_from_poi'
p4
aS'rate_bonus_by_salary'
p5
aS'to_messages'
p6
aS'bonus'
p7
aS'shared_receipt_with_poi'
p8
aS'long_term_incentive'
p9
aS'exercised_stock_options'
p10
aS'from_messages'
p11
aS'other'
p12
aS'from_poi_to_this_person'
p13
aS'from_this_person_to_poi'
p14
aS'expenses'
p15
aS'restricted_stock'
p16
aS'total_payments'
p17
aS'total_stock_value'
p18
a.